target datalayout = "e-m:e-p270:32:32-p271:32:32-p272:64:64-i64:64-i128:128-f80:128-n8:16:32:64-S128"
target triple = "x86_64-pc-linux-gnu"

%class.LogTagSet = type { ptr, i64, [5 x i32], [4 x i8], %class.LogOutputList, %class.LogDecorators, ptr }
%class.LogOutputList = type <{ [6 x ptr], i32, [4 x i8] }>
%class.LogDecorators = type { i32 }
%"struct.os::size_change_t" = type { i64, i64 }
%class.DCmd = type <{ ptr, ptr, i8, [7 x i8] }>

@.str = private unnamed_addr constant [19 x i8] c"Trim native heap: \00", align 1
@.str.4 = private unnamed_addr constant [33 x i8] c"RSS+Swap: %lu%s->%lu%s (%c%lu%s)\00", align 1
@.str.5 = private unnamed_addr constant [36 x i8] c"Manual Trim: %lu%s->%lu%s (%c%lu%s)\00", align 1
@.str.6 = private unnamed_addr constant [24 x i8] c"(no details available).\00", align 1
@.str.7 = private unnamed_addr constant [15 x i8] c"Not available.\00", align 1
@_ZN16LogTagSetMappingILN6LogTag4typeE164ELS1_0ELS1_0ELS1_0ELS1_0ELS1_0EE7_tagsetE = linkonce_odr hidden global %class.LogTagSet zeroinitializer, comdat, align 8
@.str.9 = private unnamed_addr constant [2 x i8] c"G\00", align 1
@.str.10 = private unnamed_addr constant [2 x i8] c"M\00", align 1
@.str.11 = private unnamed_addr constant [2 x i8] c"K\00", align 1
@.str.12 = private unnamed_addr constant [2 x i8] c"B\00", align 1

; Function Attrs: mustprogress nounwind uwtable
define linkonce_odr hidden noundef zeroext i1 @_ZNK13LogOutputList8is_levelEN8LogLevel4typeE(ptr noundef nonnull align 8 dereferenceable(52) %0, i32 noundef %1) #1 comdat align 2 {
  %3 = alloca ptr, align 8
  %4 = alloca i32, align 4
  store ptr %0, ptr %3, align 8
  store i32 %1, ptr %4, align 4
  %5 = load ptr, ptr %3, align 8
  %6 = getelementptr inbounds %class.LogOutputList, ptr %5, i32 0, i32 0
  %7 = load i32, ptr %4, align 4
  %8 = zext i32 %7 to i64
  %9 = getelementptr inbounds [6 x ptr], ptr %6, i64 0, i64 %8
  %10 = load volatile ptr, ptr %9, align 8
  %11 = icmp ne ptr %10, null
  ret i1 %11
}

; Function Attrs: mustprogress nounwind uwtable
define linkonce_odr hidden noundef zeroext i1 @_ZNK9LogTagSet8is_levelEN8LogLevel4typeE(ptr noundef nonnull align 8 dereferenceable(112) %0, i32 noundef %1) #1 comdat align 2 {
  %3 = alloca ptr, align 8
  %4 = alloca i32, align 4
  store ptr %0, ptr %3, align 8
  store i32 %1, ptr %4, align 4
  %5 = load ptr, ptr %3, align 8
  %6 = getelementptr inbounds %class.LogTagSet, ptr %5, i32 0, i32 4
  %7 = load i32, ptr %4, align 4
  %8 = call noundef zeroext i1 @_ZNK13LogOutputList8is_levelEN8LogLevel4typeE(ptr noundef nonnull align 8 dereferenceable(52) %6, i32 noundef %7)
  ret i1 %8
}

; Function Attrs: mustprogress nounwind uwtable
define linkonce_odr hidden noundef nonnull align 8 dereferenceable(112) ptr @_ZN16LogTagSetMappingILN6LogTag4typeE164ELS1_0ELS1_0ELS1_0ELS1_0ELS1_0EE6tagsetEv() #1 comdat align 2 {
  ret ptr @_ZN16LogTagSetMappingILN6LogTag4typeE164ELS1_0ELS1_0ELS1_0ELS1_0ELS1_0EE7_tagsetE
}

; Function Attrs: mustprogress nounwind uwtable
define linkonce_odr hidden noundef zeroext i1 @_ZN7LogImplILN6LogTag4typeE164ELS1_0ELS1_0ELS1_0ELS1_0ELS1_0EE8is_levelEN8LogLevel4typeE(i32 noundef %0) #1 comdat align 2 {
  %2 = alloca i32, align 4
  store i32 %0, ptr %2, align 4
  %3 = call noundef nonnull align 8 dereferenceable(112) ptr @_ZN16LogTagSetMappingILN6LogTag4typeE164ELS1_0ELS1_0ELS1_0ELS1_0ELS1_0EE6tagsetEv()
  %4 = load i32, ptr %2, align 4
  %5 = call noundef zeroext i1 @_ZNK9LogTagSet8is_levelEN8LogLevel4typeE(ptr noundef nonnull align 8 dereferenceable(112) %3, i32 noundef %4)
  ret i1 %5
}

; Function Attrs: mustprogress nounwind uwtable
define linkonce_odr hidden noundef ptr @_Z25proper_unit_for_byte_sizem(i64 noundef %0) #1 comdat {
  %2 = alloca ptr, align 8
  %3 = alloca i64, align 8
  store i64 %0, ptr %3, align 8
  %4 = load i64, ptr %3, align 8
  %5 = icmp uge i64 %4, 107374182400
  br i1 %5, label %6, label %7

6:                                                ; preds = %1
  store ptr @.str.9, ptr %2, align 8
  br label %16

7:                                                ; preds = %1
  %8 = load i64, ptr %3, align 8
  %9 = icmp uge i64 %8, 104857600
  br i1 %9, label %10, label %11

10:                                               ; preds = %7
  store ptr @.str.10, ptr %2, align 8
  br label %16

11:                                               ; preds = %7
  %12 = load i64, ptr %3, align 8
  %13 = icmp uge i64 %12, 102400
  br i1 %13, label %14, label %15

14:                                               ; preds = %11
  store ptr @.str.11, ptr %2, align 8
  br label %16

15:                                               ; preds = %11
  store ptr @.str.12, ptr %2, align 8
  br label %16

16:                                               ; preds = %15, %14, %10, %6
  %17 = load ptr, ptr %2, align 8
  ret ptr %17
}

; Function Attrs: mustprogress nounwind uwtable
define linkonce_odr hidden noundef i64 @_Z24byte_size_in_proper_unitImET_S0_(i64 noundef %0) #1 comdat {
  %2 = alloca i64, align 8
  %3 = alloca i64, align 8
  store i64 %0, ptr %3, align 8
  %4 = load i64, ptr %3, align 8
  %5 = icmp uge i64 %4, 107374182400
  br i1 %5, label %6, label %9

6:                                                ; preds = %1
  %7 = load i64, ptr %3, align 8
  %8 = udiv i64 %7, 1073741824
  store i64 %8, ptr %2, align 8
  br label %23

9:                                                ; preds = %1
  %10 = load i64, ptr %3, align 8
  %11 = icmp uge i64 %10, 104857600
  br i1 %11, label %12, label %15

12:                                               ; preds = %9
  %13 = load i64, ptr %3, align 8
  %14 = udiv i64 %13, 1048576
  store i64 %14, ptr %2, align 8
  br label %23

15:                                               ; preds = %9
  %16 = load i64, ptr %3, align 8
  %17 = icmp uge i64 %16, 102400
  br i1 %17, label %18, label %21

18:                                               ; preds = %15
  %19 = load i64, ptr %3, align 8
  %20 = udiv i64 %19, 1024
  store i64 %20, ptr %2, align 8
  br label %23

21:                                               ; preds = %15
  %22 = load i64, ptr %3, align 8
  store i64 %22, ptr %2, align 8
  br label %23

23:                                               ; preds = %21, %18, %12, %6
  %24 = load i64, ptr %2, align 8
  ret i64 %24
}

; Function Attrs: mustprogress nounwind uwtable
define linkonce_odr hidden noundef zeroext i1 @_ZN2os20can_trim_native_heapEv() #1 comdat align 2 {
  ret i1 true
}

; Function Attrs: mustprogress nounwind uwtable
define hidden void @_ZN17TrimCLibcHeapDCmd7executeE10DCmdSourceP10JavaThread(ptr noundef nonnull align 8 dereferenceable(17) %0, i32 noundef %1, ptr noundef %2) unnamed_addr #1 align 2 {
  %4 = alloca ptr, align 8
  %5 = alloca i32, align 4
  %6 = alloca ptr, align 8
  %7 = alloca %"struct.os::size_change_t", align 8
  %8 = alloca i64, align 8
  %9 = alloca i8, align 1
  store ptr %0, ptr %4, align 8
  store i32 %1, ptr %5, align 4
  store ptr %2, ptr %6, align 8
  %10 = load ptr, ptr %4, align 8
  %11 = call noundef zeroext i1 @_ZN2os20can_trim_native_heapEv()
  br i1 %11, label %12, label %93

12:                                               ; preds = %3
  %13 = call noundef zeroext i1 @_ZN2os16trim_native_heapEPNS_13size_change_tE(ptr noundef %7)
  br i1 %13, label %14, label %92

14:                                               ; preds = %12
  %15 = getelementptr inbounds %class.DCmd, ptr %10, i32 0, i32 1
  %16 = load ptr, ptr %15, align 8
  call void (ptr, ptr, ...) @_ZN12outputStream5printEPKcz(ptr noundef nonnull align 8 dereferenceable(56) %16, ptr noundef @.str)
  %17 = getelementptr inbounds %"struct.os::size_change_t", ptr %7, i32 0, i32 1
  %18 = load i64, ptr %17, align 8
  %19 = icmp ne i64 %18, -1
  br i1 %19, label %20, label %88

20:                                               ; preds = %14
  %21 = getelementptr inbounds %"struct.os::size_change_t", ptr %7, i32 0, i32 1
  %22 = load i64, ptr %21, align 8
  %23 = getelementptr inbounds %"struct.os::size_change_t", ptr %7, i32 0, i32 0
  %24 = load i64, ptr %23, align 8
  %25 = icmp ult i64 %22, %24
  br i1 %25, label %26, label %32

26:                                               ; preds = %20
  %27 = getelementptr inbounds %"struct.os::size_change_t", ptr %7, i32 0, i32 0
  %28 = load i64, ptr %27, align 8
  %29 = getelementptr inbounds %"struct.os::size_change_t", ptr %7, i32 0, i32 1
  %30 = load i64, ptr %29, align 8
  %31 = sub i64 %28, %30
  br label %38

32:                                               ; preds = %20
  %33 = getelementptr inbounds %"struct.os::size_change_t", ptr %7, i32 0, i32 1
  %34 = load i64, ptr %33, align 8
  %35 = getelementptr inbounds %"struct.os::size_change_t", ptr %7, i32 0, i32 0
  %36 = load i64, ptr %35, align 8
  %37 = sub i64 %34, %36
  br label %38

38:                                               ; preds = %32, %26
  %39 = phi i64 [ %31, %26 ], [ %37, %32 ]
  store i64 %39, ptr %8, align 8
  %40 = getelementptr inbounds %"struct.os::size_change_t", ptr %7, i32 0, i32 1
  %41 = load i64, ptr %40, align 8
  %42 = getelementptr inbounds %"struct.os::size_change_t", ptr %7, i32 0, i32 0
  %43 = load i64, ptr %42, align 8
  %44 = icmp ult i64 %41, %43
  %45 = select i1 %44, i8 45, i8 43
  store i8 %45, ptr %9, align 1
  %46 = getelementptr inbounds %class.DCmd, ptr %10, i32 0, i32 1
  %47 = load ptr, ptr %46, align 8
  %48 = getelementptr inbounds %"struct.os::size_change_t", ptr %7, i32 0, i32 0
  %49 = load i64, ptr %48, align 8
  %50 = call noundef i64 @_Z24byte_size_in_proper_unitImET_S0_(i64 noundef %49)
  %51 = getelementptr inbounds %"struct.os::size_change_t", ptr %7, i32 0, i32 0
  %52 = load i64, ptr %51, align 8
  %53 = call noundef ptr @_Z25proper_unit_for_byte_sizem(i64 noundef %52)
  %54 = getelementptr inbounds %"struct.os::size_change_t", ptr %7, i32 0, i32 1
  %55 = load i64, ptr %54, align 8
  %56 = call noundef i64 @_Z24byte_size_in_proper_unitImET_S0_(i64 noundef %55)
  %57 = getelementptr inbounds %"struct.os::size_change_t", ptr %7, i32 0, i32 1
  %58 = load i64, ptr %57, align 8
  %59 = call noundef ptr @_Z25proper_unit_for_byte_sizem(i64 noundef %58)
  %60 = load i8, ptr %9, align 1
  %61 = sext i8 %60 to i32
  %62 = load i64, ptr %8, align 8
  %63 = call noundef i64 @_Z24byte_size_in_proper_unitImET_S0_(i64 noundef %62)
  %64 = load i64, ptr %8, align 8
  %65 = call noundef ptr @_Z25proper_unit_for_byte_sizem(i64 noundef %64)
  call void (ptr, ptr, ...) @_ZN12outputStream8print_crEPKcz(ptr noundef nonnull align 8 dereferenceable(56) %47, ptr noundef @.str.4, i64 noundef %50, ptr noundef %53, i64 noundef %56, ptr noundef %59, i32 noundef %61, i64 noundef %63, ptr noundef %65)
  %66 = call noundef zeroext i1 @_ZN7LogImplILN6LogTag4typeE164ELS1_0ELS1_0ELS1_0ELS1_0ELS1_0EE8is_levelEN8LogLevel4typeE(i32 noundef 3)
  br i1 %66, label %68, label %67

67:                                               ; preds = %38
  br label %87

68:                                               ; preds = %38
  %69 = getelementptr inbounds %"struct.os::size_change_t", ptr %7, i32 0, i32 0
  %70 = load i64, ptr %69, align 8
  %71 = call noundef i64 @_Z24byte_size_in_proper_unitImET_S0_(i64 noundef %70)
  %72 = getelementptr inbounds %"struct.os::size_change_t", ptr %7, i32 0, i32 0
  %73 = load i64, ptr %72, align 8
  %74 = call noundef ptr @_Z25proper_unit_for_byte_sizem(i64 noundef %73)
  %75 = getelementptr inbounds %"struct.os::size_change_t", ptr %7, i32 0, i32 1
  %76 = load i64, ptr %75, align 8
  %77 = call noundef i64 @_Z24byte_size_in_proper_unitImET_S0_(i64 noundef %76)
  %78 = getelementptr inbounds %"struct.os::size_change_t", ptr %7, i32 0, i32 1
  %79 = load i64, ptr %78, align 8
  %80 = call noundef ptr @_Z25proper_unit_for_byte_sizem(i64 noundef %79)
  %81 = load i8, ptr %9, align 1
  %82 = sext i8 %81 to i32
  %83 = load i64, ptr %8, align 8
  %84 = call noundef i64 @_Z24byte_size_in_proper_unitImET_S0_(i64 noundef %83)
  %85 = load i64, ptr %8, align 8
  %86 = call noundef ptr @_Z25proper_unit_for_byte_sizem(i64 noundef %85)
  call void (ptr, ...) @_ZN7LogImplILN6LogTag4typeE164ELS1_0ELS1_0ELS1_0ELS1_0ELS1_0EE5writeILN8LogLevel4typeE3EEEvPKcz(ptr noundef @.str.5, i64 noundef %71, ptr noundef %74, i64 noundef %77, ptr noundef %80, i32 noundef %82, i64 noundef %84, ptr noundef %86)
  br label %87

87:                                               ; preds = %68, %67
  br label %91

88:                                               ; preds = %14
  %89 = getelementptr inbounds %class.DCmd, ptr %10, i32 0, i32 1
  %90 = load ptr, ptr %89, align 8
  call void (ptr, ptr, ...) @_ZN12outputStream8print_crEPKcz(ptr noundef nonnull align 8 dereferenceable(56) %90, ptr noundef @.str.6)
  br label %91

91:                                               ; preds = %88, %87
  br label %92

92:                                               ; preds = %91, %12
  br label %96

93:                                               ; preds = %3
  %94 = getelementptr inbounds %class.DCmd, ptr %10, i32 0, i32 1
  %95 = load ptr, ptr %94, align 8
  call void (ptr, ptr, ...) @_ZN12outputStream8print_crEPKcz(ptr noundef nonnull align 8 dereferenceable(56) %95, ptr noundef @.str.7)
  br label %96

96:                                               ; preds = %93, %92
  ret void
}