; Function Attrs: mustprogress nounwind uwtable
define hidden void @_ZN17TrimCLibcHeapDCmd7executeE10DCmdSourceP10JavaThread(ptr nocapture noundef nonnull readonly align 8 dereferenceable(17) %0, i32 %1, ptr nocapture readnone %2) unnamed_addr #0 align 2 {
  %4 = alloca %"struct.os::size_change_t", align 8
  %5 = call noundef zeroext i1 @_ZN2os16trim_native_heapEPNS_13size_change_tE(ptr noundef nonnull %4) #5
  br i1 %5, label %6, label %72

6:                                                ; preds = %3
  %7 = getelementptr inbounds i8, ptr %0, i64 8
  %8 = load ptr, ptr %7, align 8
  call void (ptr, ptr, ...) @_ZN12outputStream5printEPKcz(ptr noundef nonnull align 8 dereferenceable(56) %8, ptr noundef nonnull @.str) #5
  %9 = getelementptr inbounds i8, ptr %4, i64 8
  %10 = load i64, ptr %9, align 8
  %.not = icmp eq i64 %10, -1
  br i1 %.not, label %70, label %11

11:                                               ; preds = %6
  %12 = load i64, ptr %4, align 8
  %13 = icmp ult i64 %10, %12
  %14 = sub i64 %12, %10
  %15 = sub i64 %10, %12
  %16 = select i1 %13, i64 %14, i64 %15
  %17 = load ptr, ptr %7, align 8
  %18 = icmp ugt i64 %12, 107374182399
  br i1 %18, label %_Z24byte_size_in_proper_unitImET_S0_.exit, label %19

19:                                               ; preds = %11
  %20 = icmp ugt i64 %12, 104857599
  br i1 %20, label %.thread, label %23

.thread:                                          ; preds = %19
  %21 = lshr i64 %12, 20
  br label %_Z25proper_unit_for_byte_sizem.exit

_Z24byte_size_in_proper_unitImET_S0_.exit:        ; preds = %11
  %22 = lshr i64 %12, 30
  br label %_Z25proper_unit_for_byte_sizem.exit

23:                                               ; preds = %19
  %24 = icmp ugt i64 %12, 102399
  %25 = lshr i64 %12, 10
  %spec.select.i = select i1 %24, i64 %25, i64 %12
  %.str.11..str.12.i = select i1 %24, ptr @.str.11, ptr @.str.12
  br label %_Z25proper_unit_for_byte_sizem.exit

_Z25proper_unit_for_byte_sizem.exit:              ; preds = %.thread, %_Z24byte_size_in_proper_unitImET_S0_.exit, %23
  %.0.i40 = phi i64 [ %22, %_Z24byte_size_in_proper_unitImET_S0_.exit ], [ %spec.select.i, %23 ], [ %21, %.thread ]
  %.0.i7 = phi ptr [ @.str.9, %_Z24byte_size_in_proper_unitImET_S0_.exit ], [ %.str.11..str.12.i, %23 ], [ @.str.10, %.thread ]
  %26 = icmp ugt i64 %10, 107374182399
  br i1 %26, label %_Z24byte_size_in_proper_unitImET_S0_.exit10, label %27

27:                                               ; preds = %_Z25proper_unit_for_byte_sizem.exit
  %28 = icmp ugt i64 %10, 104857599
  br i1 %28, label %.thread45, label %31

.thread45:                                        ; preds = %27
  %29 = lshr i64 %10, 20
  br label %_Z25proper_unit_for_byte_sizem.exit13

_Z24byte_size_in_proper_unitImET_S0_.exit10:      ; preds = %_Z25proper_unit_for_byte_sizem.exit
  %30 = lshr i64 %10, 30
  br label %_Z25proper_unit_for_byte_sizem.exit13

31:                                               ; preds = %27
  %32 = icmp ugt i64 %10, 102399
  %33 = lshr i64 %10, 10
  %spec.select.i8 = select i1 %32, i64 %33, i64 %10
  %.str.11..str.12.i11 = select i1 %32, ptr @.str.11, ptr @.str.12
  br label %_Z25proper_unit_for_byte_sizem.exit13

_Z25proper_unit_for_byte_sizem.exit13:            ; preds = %.thread45, %_Z24byte_size_in_proper_unitImET_S0_.exit10, %31
  %.0.i944 = phi i64 [ %30, %_Z24byte_size_in_proper_unitImET_S0_.exit10 ], [ %spec.select.i8, %31 ], [ %29, %.thread45 ]
  %.0.i12 = phi ptr [ @.str.9, %_Z24byte_size_in_proper_unitImET_S0_.exit10 ], [ %.str.11..str.12.i11, %31 ], [ @.str.10, %.thread45 ]
  %34 = select i1 %13, i32 45, i32 43
  %35 = icmp ugt i64 %16, 107374182399
  br i1 %35, label %_Z24byte_size_in_proper_unitImET_S0_.exit16, label %36

36:                                               ; preds = %_Z25proper_unit_for_byte_sizem.exit13
  %37 = icmp ugt i64 %16, 104857599
  br i1 %37, label %.thread50, label %40

.thread50:                                        ; preds = %36
  %38 = lshr i64 %16, 20
  br label %_Z25proper_unit_for_byte_sizem.exit19

_Z24byte_size_in_proper_unitImET_S0_.exit16:      ; preds = %_Z25proper_unit_for_byte_sizem.exit13
  %39 = lshr i64 %16, 30
  br label %_Z25proper_unit_for_byte_sizem.exit19

40:                                               ; preds = %36
  %41 = icmp ugt i64 %16, 102399
  %42 = lshr i64 %16, 10
  %spec.select.i14 = select i1 %41, i64 %42, i64 %16
  %.str.11..str.12.i17 = select i1 %41, ptr @.str.11, ptr @.str.12
  br label %_Z25proper_unit_for_byte_sizem.exit19

_Z25proper_unit_for_byte_sizem.exit19:            ; preds = %.thread50, %_Z24byte_size_in_proper_unitImET_S0_.exit16, %40
  %.0.i1549 = phi i64 [ %39, %_Z24byte_size_in_proper_unitImET_S0_.exit16 ], [ %spec.select.i14, %40 ], [ %38, %.thread50 ]
  %.0.i18 = phi ptr [ @.str.9, %_Z24byte_size_in_proper_unitImET_S0_.exit16 ], [ %.str.11..str.12.i17, %40 ], [ @.str.10, %.thread50 ]
  call void (ptr, ptr, ...) @_ZN12outputStream8print_crEPKcz(ptr noundef nonnull align 8 dereferenceable(56) %17, ptr noundef nonnull @.str.4, i64 noundef %.0.i40, ptr noundef nonnull %.0.i7, i64 noundef %.0.i944, ptr noundef nonnull %.0.i12, i32 noundef %34, i64 noundef %.0.i1549, ptr noundef nonnull %.0.i18) #5
  %43 = load volatile ptr, ptr getelementptr inbounds (i8, ptr @_ZN16LogTagSetMappingILN6LogTag4typeE164ELS1_0ELS1_0ELS1_0ELS1_0ELS1_0EE7_tagsetE, i64 64), align 8
  %.not67 = icmp eq ptr %43, null
  br i1 %.not67, label %72, label %44

44:                                               ; preds = %_Z25proper_unit_for_byte_sizem.exit19
  %45 = load i64, ptr %4, align 8
  %46 = icmp ugt i64 %45, 107374182399
  br i1 %46, label %_Z24byte_size_in_proper_unitImET_S0_.exit22, label %47

47:                                               ; preds = %44
  %48 = icmp ugt i64 %45, 104857599
  br i1 %48, label %.thread55, label %51

.thread55:                                        ; preds = %47
  %49 = lshr i64 %45, 20
  br label %_Z25proper_unit_for_byte_sizem.exit25

_Z24byte_size_in_proper_unitImET_S0_.exit22:      ; preds = %44
  %50 = lshr i64 %45, 30
  br label %_Z25proper_unit_for_byte_sizem.exit25

51:                                               ; preds = %47
  %52 = icmp ugt i64 %45, 102399
  %53 = lshr i64 %45, 10
  %spec.select.i20 = select i1 %52, i64 %53, i64 %45
  %.str.11..str.12.i23 = select i1 %52, ptr @.str.11, ptr @.str.12
  br label %_Z25proper_unit_for_byte_sizem.exit25

_Z25proper_unit_for_byte_sizem.exit25:            ; preds = %.thread55, %_Z24byte_size_in_proper_unitImET_S0_.exit22, %51
  %.0.i2154 = phi i64 [ %50, %_Z24byte_size_in_proper_unitImET_S0_.exit22 ], [ %spec.select.i20, %51 ], [ %49, %.thread55 ]
  %.0.i24 = phi ptr [ @.str.9, %_Z24byte_size_in_proper_unitImET_S0_.exit22 ], [ %.str.11..str.12.i23, %51 ], [ @.str.10, %.thread55 ]
  %54 = load i64, ptr %9, align 8
  %55 = icmp ugt i64 %54, 107374182399
  br i1 %55, label %_Z24byte_size_in_proper_unitImET_S0_.exit28, label %56

56:                                               ; preds = %_Z25proper_unit_for_byte_sizem.exit25
  %57 = icmp ugt i64 %54, 104857599
  br i1 %57, label %.thread60, label %60

.thread60:                                        ; preds = %56
  %58 = lshr i64 %54, 20
  br label %_Z25proper_unit_for_byte_sizem.exit31

_Z24byte_size_in_proper_unitImET_S0_.exit28:      ; preds = %_Z25proper_unit_for_byte_sizem.exit25
  %59 = lshr i64 %54, 30
  br label %_Z25proper_unit_for_byte_sizem.exit31

60:                                               ; preds = %56
  %61 = icmp ugt i64 %54, 102399
  %62 = lshr i64 %54, 10
  %spec.select.i26 = select i1 %61, i64 %62, i64 %54
  %.str.11..str.12.i29 = select i1 %61, ptr @.str.11, ptr @.str.12
  br label %_Z25proper_unit_for_byte_sizem.exit31

_Z25proper_unit_for_byte_sizem.exit31:            ; preds = %.thread60, %_Z24byte_size_in_proper_unitImET_S0_.exit28, %60
  %.0.i2759 = phi i64 [ %59, %_Z24byte_size_in_proper_unitImET_S0_.exit28 ], [ %spec.select.i26, %60 ], [ %58, %.thread60 ]
  %.0.i30 = phi ptr [ @.str.9, %_Z24byte_size_in_proper_unitImET_S0_.exit28 ], [ %.str.11..str.12.i29, %60 ], [ @.str.10, %.thread60 ]
  br i1 %35, label %_Z24byte_size_in_proper_unitImET_S0_.exit34, label %63

63:                                               ; preds = %_Z25proper_unit_for_byte_sizem.exit31
  %64 = icmp ugt i64 %16, 104857599
  br i1 %64, label %.thread65, label %67

.thread65:                                        ; preds = %63
  %65 = lshr i64 %16, 20
  br label %_Z25proper_unit_for_byte_sizem.exit37

_Z24byte_size_in_proper_unitImET_S0_.exit34:      ; preds = %_Z25proper_unit_for_byte_sizem.exit31
  %66 = lshr i64 %16, 30
  br label %_Z25proper_unit_for_byte_sizem.exit37

67:                                               ; preds = %63
  %68 = icmp ugt i64 %16, 102399
  %69 = lshr i64 %16, 10
  %spec.select.i32 = select i1 %68, i64 %69, i64 %16
  %.str.11..str.12.i35 = select i1 %68, ptr @.str.11, ptr @.str.12
  br label %_Z25proper_unit_for_byte_sizem.exit37

_Z25proper_unit_for_byte_sizem.exit37:            ; preds = %.thread65, %_Z24byte_size_in_proper_unitImET_S0_.exit34, %67
  %.0.i3364 = phi i64 [ %66, %_Z24byte_size_in_proper_unitImET_S0_.exit34 ], [ %spec.select.i32, %67 ], [ %65, %.thread65 ]
  %.0.i36 = phi ptr [ @.str.9, %_Z24byte_size_in_proper_unitImET_S0_.exit34 ], [ %.str.11..str.12.i35, %67 ], [ @.str.10, %.thread65 ]
  call void (ptr, ...) @_ZN7LogImplILN6LogTag4typeE164ELS1_0ELS1_0ELS1_0ELS1_0ELS1_0EE5writeILN8LogLevel4typeE3EEEvPKcz(ptr noundef nonnull @.str.5, i64 noundef %.0.i2154, ptr noundef nonnull %.0.i24, i64 noundef %.0.i2759, ptr noundef nonnull %.0.i30, i32 noundef %34, i64 noundef %.0.i3364, ptr noundef nonnull %.0.i36)
  br label %72

70:                                               ; preds = %6
  %71 = load ptr, ptr %7, align 8
  call void (ptr, ptr, ...) @_ZN12outputStream8print_crEPKcz(ptr noundef nonnull align 8 dereferenceable(56) %71, ptr noundef nonnull @.str.6) #5
  br label %72

72:                                               ; preds = %3, %_Z25proper_unit_for_byte_sizem.exit37, %_Z25proper_unit_for_byte_sizem.exit19, %70
  ret void
}